Certificate:
    Data:
        Version: 3 (0x2)
        Serial Number: 3 (0x3)
    Signature Algorithm: sha256WithRSAEncryption
        Issuer: C=GB, ST=Derbyshire, O=Mosquitto Project, OU=Testing, CN=Signing CA
        Validity
            Not Before: Aug 20 00:00:00 2012 GMT
            Not After : Aug 21 00:00:00 2012 GMT
        Subject: C=GB, ST=Nottinghamshire, L=Nottingham, O=Server, OU=Production, CN=test client expired
        Subject Public Key Info:
            Public Key Algorithm: rsaEncryption
                Public-Key: (1024 bit)
                Modulus:
                    00:cf:a2:94:2e:b7:84:9f:ec:67:86:ce:6a:71:75:
                    6a:9d:9a:a3:69:2b:83:8e:a8:23:05:51:bc:ab:98:
                    1e:01:bc:06:03:26:bd:34:ec:52:15:a7:4b:45:a5:
                    62:f4:3c:c1:95:fe:7b:07:16:f7:03:ae:9a:19:4b:
                    a2:b9:49:80:5d:63:8b:a8:cb:d4:ed:86:9d:da:71:
                    4f:15:6f:c5:0d:c6:81:cb:ad:57:75:7c:d9:2e:65:
                    a7:86:a4:8f:84:70:0d:c5:3a:53:6c:da:29:a3:1d:
                    b2:ac:4b:a0:86:7f:f3:16:2e:8d:99:dd:44:30:2b:
                    81:89:e3:ae:79:b8:d7:ae:e9
                Exponent: 65537 (0x10001)
        X509v3 extensions:
            X509v3 Basic Constraints: 
                CA:FALSE
            Netscape Comment: 
                OpenSSL Generated Certificate
            X509v3 Subject Key Identifier: 
                FB:66:3B:5D:45:33:5B:61:14:52:C0:E4:04:FF:12:73:AD:B3:9B:56
            X509v3 Authority Key Identifier: 
                keyid:EE:60:BB:C7:17:5F:D3:72:AC:33:EE:8E:84:CC:2D:DB:1A:CC:8A:52

    Signature Algorithm: sha256WithRSAEncryption
         80:89:73:0e:35:ea:ce:88:27:9e:71:7a:6c:13:46:2f:e9:cd:
         2a:04:6d:86:98:83:e3:0d:c3:d4:75:9d:6a:96:ec:b4:92:d0:
         7a:3f:f5:e2:84:bb:67:3e:1f:9f:f6:3b:b4:98:2d:17:7f:c6:
         2b:27:8f:4d:e1:4b:5c:7e:ae:e6:e6:e8:b7:82:3f:50:4b:78:
         af:ae:2f:13:bf:c6:f1:f1:95:16:c2:46:73:8d:d9:3e:25:cd:
         90:15:e3:63:7d:0a:a2:19:f8:00:70:1e:7a:a1:a6:4e:3c:79:
         b9:e1:66:7c:fd:67:40:69:c5:6b:3a:15:55:81:10:b6:4d:d2:
         22:b1
-----BEGIN CERTIFICATE-----
MIIC1zCCAkCgAwIBAgIBAzANBgkqhkiG9w0BAQsFADBlMQswCQYDVQQGEwJHQjET
MBEGA1UECAwKRGVyYnlzaGlyZTEaMBgGA1UECgwRTW9zcXVpdHRvIFByb2plY3Qx
EDAOBgNVBAsMB1Rlc3RpbmcxEzARBgNVBAMMClNpZ25pbmcgQ0EwHhcNMTIwODIw
MDAwMDAwWhcNMTIwODIxMDAwMDAwWjCBgDELMAkGA1UEBhMCR0IxGDAWBgNVBAgM
D05vdHRpbmdoYW1zaGlyZTETMBEGA1UEBwwKTm90dGluZ2hhbTEPMA0GA1UECgwG
U2VydmVyMRMwEQYDVQQLDApQcm9kdWN0aW9uMRwwGgYDVQQDDBN0ZXN0IGNsaWVu
dCBleHBpcmVkMIGfMA0GCSqGSIb3DQEBAQUAA4GNADCBiQKBgQDPopQut4Sf7GeG
zmpxdWqdmqNpK4OOqCMFUbyrmB4BvAYDJr007FIVp0tFpWL0PMGV/nsHFvcDrpoZ
S6K5SYBdY4uoy9Tthp3acU8Vb8UNxoHLrVd1fNkuZaeGpI+EcA3FOlNs2imjHbKs
S6CGf/MWLo2Z3UQwK4GJ4655uNeu6QIDAQABo3sweTAJBgNVHRMEAjAAMCwGCWCG
SAGG+EIBDQQfFh1PcGVuU1NMIEdlbmVyYXRlZCBDZXJ0aWZpY2F0ZTAdBgNVHQ4E
FgQU+2Y7XUUzW2EUUsDkBP8Sc62zm1YwHwYDVR0jBBgwFoAU7mC7xxdf03KsM+6O
hMwt2xrMilIwDQYJKoZIhvcNAQELBQADgYEAgIlzDjXqzognnnF6bBNGL+nNKgRt
hpiD4w3D1HWdapbstJLQej/14oS7Zz4fn/Y7tJgtF3/GKyePTeFLXH6u5ubot4I/
UEt4r64vE7/G8fGVFsJGc43ZPiXNkBXjY30Kohn4AHAeeqGmTjx5ueFmfP1nQGnF
azoVVYEQtk3SIrE=
-----END CERTIFICATE-----
