Certificate:
    Data:
        Version: 3 (0x2)
        Serial Number: 1 (0x1)
    Signature Algorithm: sha256WithRSAEncryption
        Issuer: C=GB, ST=Derbyshire, O=Mosquitto Project, OU=Testing, CN=Signing CA
        Validity
            Not Before: Sep 18 10:49:54 2018 GMT
            Not After : Sep 17 10:49:54 2023 GMT
        Subject: C=GB, ST=Nottinghamshire, L=Nottingham, O=Server, OU=Production, CN=localhost
        Subject Public Key Info:
            Public Key Algorithm: rsaEncryption
                Public-Key: (1024 bit)
                Modulus:
                    00:cc:a0:1e:6a:7c:20:f0:3f:b2:48:2d:61:8d:b9:
                    db:a8:a5:65:6b:13:88:37:c7:12:d7:32:dc:b6:fd:
                    89:4c:fd:2e:bf:e6:34:f5:ac:9d:db:82:54:b1:9c:
                    84:7b:a7:af:3a:7e:89:fd:7e:fe:f1:3d:6f:46:1b:
                    28:f2:d9:65:76:0d:11:4a:10:8b:a9:eb:bd:11:2c:
                    a8:5d:0a:30:65:c7:99:1f:96:88:2e:f1:a5:15:62:
                    a9:4a:2b:50:9e:70:04:0c:3d:24:55:4b:c3:d2:86:
                    57:4f:76:91:6b:2b:35:40:10:b2:f0:c2:17:3f:da:
                    dd:d1:00:a7:32:64:37:24:b5
                Exponent: 65537 (0x10001)
        X509v3 extensions:
            X509v3 Basic Constraints: 
                CA:FALSE
            Netscape Comment: 
                OpenSSL Generated Certificate
            X509v3 Subject Key Identifier: 
                F9:F6:14:B3:4E:D1:D5:35:9F:15:D4:74:10:0E:85:F5:FF:8C:D2:C9
            X509v3 Authority Key Identifier: 
                keyid:EE:60:BB:C7:17:5F:D3:72:AC:33:EE:8E:84:CC:2D:DB:1A:CC:8A:52

    Signature Algorithm: sha256WithRSAEncryption
         94:f9:64:c6:99:00:68:03:bb:58:e8:cd:71:65:82:02:30:ff:
         cf:87:c3:5f:98:51:c8:96:93:c2:92:c0:f5:d4:78:5b:a2:0b:
         ee:1a:77:6c:1e:bb:f8:d9:d9:93:b5:d2:9e:84:1b:bd:e3:0d:
         43:91:5b:a3:87:b3:a5:87:6b:ed:a3:93:e2:5a:7c:1e:09:f0:
         2a:27:97:39:3b:c4:a0:23:b4:84:50:c1:a2:1c:4d:0b:dc:66:
         16:d4:ef:1b:3b:bf:ef:69:a2:de:e1:01:b8:ca:e3:d3:be:f0:
         e2:87:e1:1f:b5:92:93:25:32:e9:12:19:cb:78:dc:16:56:48:
         ea:7c
-----BEGIN CERTIFICATE-----
MIICzDCCAjWgAwIBAgIBATANBgkqhkiG9w0BAQsFADBlMQswCQYDVQQGEwJHQjET
MBEGA1UECAwKRGVyYnlzaGlyZTEaMBgGA1UECgwRTW9zcXVpdHRvIFByb2plY3Qx
EDAOBgNVBAsMB1Rlc3RpbmcxEzARBgNVBAMMClNpZ25pbmcgQ0EwHhcNMTgwOTE4
MTA0OTU0WhcNMjMwOTE3MTA0OTU0WjB2MQswCQYDVQQGEwJHQjEYMBYGA1UECAwP
Tm90dGluZ2hhbXNoaXJlMRMwEQYDVQQHDApOb3R0aW5naGFtMQ8wDQYDVQQKDAZT
ZXJ2ZXIxEzARBgNVBAsMClByb2R1Y3Rpb24xEjAQBgNVBAMMCWxvY2FsaG9zdDCB
nzANBgkqhkiG9w0BAQEFAAOBjQAwgYkCgYEAzKAeanwg8D+ySC1hjbnbqKVlaxOI
N8cS1zLctv2JTP0uv+Y09ayd24JUsZyEe6evOn6J/X7+8T1vRhso8tlldg0RShCL
qeu9ESyoXQowZceZH5aILvGlFWKpSitQnnAEDD0kVUvD0oZXT3aRays1QBCy8MIX
P9rd0QCnMmQ3JLUCAwEAAaN7MHkwCQYDVR0TBAIwADAsBglghkgBhvhCAQ0EHxYd
T3BlblNTTCBHZW5lcmF0ZWQgQ2VydGlmaWNhdGUwHQYDVR0OBBYEFPn2FLNO0dU1
nxXUdBAOhfX/jNLJMB8GA1UdIwQYMBaAFO5gu8cXX9NyrDPujoTMLdsazIpSMA0G
CSqGSIb3DQEBCwUAA4GBAJT5ZMaZAGgDu1jozXFlggIw/8+Hw1+YUciWk8KSwPXU
eFuiC+4ad2weu/jZ2ZO10p6EG73jDUORW6OHs6WHa+2jk+JafB4J8Conlzk7xKAj
tIRQwaIcTQvcZhbU7xs7v+9pot7hAbjK49O+8OKH4R+1kpMlMukSGct43BZWSOp8
-----END CERTIFICATE-----
