Certificate:
    Data:
        Version: 3 (0x2)
        Serial Number: 2 (0x2)
    Signature Algorithm: sha256WithRSAEncryption
        Issuer: C=GB, ST=Derbyshire, L=Derby, O=Mosquitto Project, OU=Testing, CN=Root CA
        Validity
            Not Before: Sep 18 10:49:53 2018 GMT
            Not After : Sep 17 10:49:53 2023 GMT
        Subject: C=GB, ST=Derbyshire, O=Mosquitto Project, OU=Testing, CN=Alternative Signing CA
        Subject Public Key Info:
            Public Key Algorithm: rsaEncryption
                Public-Key: (1024 bit)
                Modulus:
                    00:d9:91:e8:a7:67:b4:bf:8e:c9:6a:23:ee:00:14:
                    6b:1f:b9:73:4d:af:ab:d3:96:5f:76:e5:0d:59:d4:
                    0b:35:d4:48:5d:9b:9f:fc:e0:c2:29:b2:32:a9:e7:
                    5b:81:bf:9c:55:e5:7f:e1:64:c5:c7:bc:10:3f:6e:
                    05:16:82:47:e9:ae:86:97:75:2f:93:56:b2:4b:df:
                    80:e1:a3:75:22:03:e0:de:93:5d:2d:98:ae:a9:c7:
                    53:7d:a2:1a:c9:5d:83:0e:e2:60:52:a5:a8:82:fe:
                    04:ae:be:1d:c4:c6:5c:ae:08:41:33:7a:88:4d:82:
                    e8:da:93:b8:01:ad:c6:1b:75
                Exponent: 65537 (0x10001)
        X509v3 extensions:
            X509v3 Subject Key Identifier: 
                EC:E8:0A:3E:42:B9:F1:5D:F9:74:6E:07:8D:39:3F:63:53:7A:2C:17
            X509v3 Authority Key Identifier: 
                keyid:DA:20:AB:E0:98:22:39:28:E0:70:D6:74:65:53:26:E0:6B:4C:96:39

            X509v3 Basic Constraints: 
                CA:TRUE
    Signature Algorithm: sha256WithRSAEncryption
         0a:14:f7:e7:54:44:59:39:14:b0:aa:d3:0e:bd:94:e2:0a:b3:
         e9:65:31:c7:8c:0b:af:55:b9:c0:96:bb:2f:12:40:6a:4e:3e:
         13:c8:7e:cc:02:06:83:41:ad:22:2b:15:ea:fe:c4:09:25:2d:
         e7:d4:f4:91:59:4e:6b:c9:8c:c5:a3:e0:f7:d2:56:1a:ea:82:
         a6:06:15:d8:25:03:2f:71:c4:78:5c:ba:ce:8c:a4:80:67:58:
         33:12:86:df:ae:da:bd:d2:ff:e5:71:d0:8a:1f:ad:b4:0a:70:
         52:d7:04:0f:f8:2c:b9:1c:8e:1b:5b:c2:df:f8:ca:c9:97:4e:
         1a:0c
-----BEGIN CERTIFICATE-----
MIICqTCCAhKgAwIBAgIBAjANBgkqhkiG9w0BAQsFADByMQswCQYDVQQGEwJHQjET
MBEGA1UECAwKRGVyYnlzaGlyZTEOMAwGA1UEBwwFRGVyYnkxGjAYBgNVBAoMEU1v
c3F1aXR0byBQcm9qZWN0MRAwDgYDVQQLDAdUZXN0aW5nMRAwDgYDVQQDDAdSb290
IENBMB4XDTE4MDkxODEwNDk1M1oXDTIzMDkxNzEwNDk1M1owcTELMAkGA1UEBhMC
R0IxEzARBgNVBAgMCkRlcmJ5c2hpcmUxGjAYBgNVBAoMEU1vc3F1aXR0byBQcm9q
ZWN0MRAwDgYDVQQLDAdUZXN0aW5nMR8wHQYDVQQDDBZBbHRlcm5hdGl2ZSBTaWdu
aW5nIENBMIGfMA0GCSqGSIb3DQEBAQUAA4GNADCBiQKBgQDZkeinZ7S/jslqI+4A
FGsfuXNNr6vTll925Q1Z1As11Ehdm5/84MIpsjKp51uBv5xV5X/hZMXHvBA/bgUW
gkfproaXdS+TVrJL34Dho3UiA+Dek10tmK6px1N9ohrJXYMO4mBSpaiC/gSuvh3E
xlyuCEEzeohNgujak7gBrcYbdQIDAQABo1AwTjAdBgNVHQ4EFgQU7OgKPkK58V35
dG4HjTk/Y1N6LBcwHwYDVR0jBBgwFoAU2iCr4JgiOSjgcNZ0ZVMm4GtMljkwDAYD
VR0TBAUwAwEB/zANBgkqhkiG9w0BAQsFAAOBgQAKFPfnVERZORSwqtMOvZTiCrPp
ZTHHjAuvVbnAlrsvEkBqTj4TyH7MAgaDQa0iKxXq/sQJJS3n1PSRWU5ryYzFo+D3
0lYa6oKmBhXYJQMvccR4XLrOjKSAZ1gzEobfrtq90v/lcdCKH620CnBS1wQP+Cy5
HI4bW8Lf+MrJl04aDA==
-----END CERTIFICATE-----
