Certificate:
    Data:
        Version: 3 (0x2)
        Serial Number: 1 (0x1)
    Signature Algorithm: sha256WithRSAEncryption
        Issuer: C=GB, ST=Derbyshire, L=Derby, O=Mosquitto Project, OU=Testing, CN=Root CA
        Validity
            Not Before: Sep 18 10:49:47 2018 GMT
            Not After : Sep 17 10:49:47 2023 GMT
        Subject: C=GB, ST=Derbyshire, O=Mosquitto Project, OU=Testing, CN=Signing CA
        Subject Public Key Info:
            Public Key Algorithm: rsaEncryption
                Public-Key: (1024 bit)
                Modulus:
                    00:b7:32:f2:08:04:4c:77:03:70:3e:10:88:84:cd:
                    cd:f2:87:2f:3c:67:8f:78:01:5e:d5:51:f1:11:68:
                    4d:a7:e2:73:b0:69:b5:67:07:59:88:cc:b8:7f:ce:
                    97:52:bc:fb:73:7b:60:95:a2:7b:c2:9a:f1:4d:5a:
                    c4:42:55:c4:6e:02:50:a1:71:41:68:d1:6c:96:e0:
                    3d:af:10:3f:7b:64:c1:3a:3a:c3:a9:39:71:08:29:
                    45:c8:cc:da:33:65:b4:70:fb:36:bc:15:0d:a7:31:
                    ef:d5:ec:59:ac:75:2b:77:35:0b:f0:db:3d:14:f5:
                    9a:41:e6:a0:b7:b7:62:2b:e7
                Exponent: 65537 (0x10001)
        X509v3 extensions:
            X509v3 Subject Key Identifier: 
                EE:60:BB:C7:17:5F:D3:72:AC:33:EE:8E:84:CC:2D:DB:1A:CC:8A:52
            X509v3 Authority Key Identifier: 
                keyid:DA:20:AB:E0:98:22:39:28:E0:70:D6:74:65:53:26:E0:6B:4C:96:39

            X509v3 Basic Constraints: 
                CA:TRUE
    Signature Algorithm: sha256WithRSAEncryption
         8a:98:17:cd:e1:dc:2b:1b:5b:16:40:99:21:c4:d4:db:3f:5c:
         6a:ed:7b:a2:b6:df:aa:7c:d8:6a:3f:11:39:da:4c:ce:3f:e5:
         99:6a:a4:b8:82:1e:53:7a:5d:f1:52:be:df:f1:3b:59:9a:a8:
         bb:7e:f1:30:33:4b:7c:c3:ab:85:1e:c4:0e:ac:d1:7e:2b:cb:
         9d:19:5b:df:94:b4:89:e1:da:5d:31:19:85:34:d5:33:55:f8:
         af:92:ea:9a:17:c9:da:68:00:df:10:e9:e4:33:35:cd:15:57:
         80:56:1a:58:94:37:d7:f2:02:de:9b:0b:d3:02:64:c5:8e:6f:
         25:31
-----BEGIN CERTIFICATE-----
MIICnTCCAgagAwIBAgIBATANBgkqhkiG9w0BAQsFADByMQswCQYDVQQGEwJHQjET
MBEGA1UECAwKRGVyYnlzaGlyZTEOMAwGA1UEBwwFRGVyYnkxGjAYBgNVBAoMEU1v
c3F1aXR0byBQcm9qZWN0MRAwDgYDVQQLDAdUZXN0aW5nMRAwDgYDVQQDDAdSb290
IENBMB4XDTE4MDkxODEwNDk0N1oXDTIzMDkxNzEwNDk0N1owZTELMAkGA1UEBhMC
R0IxEzARBgNVBAgMCkRlcmJ5c2hpcmUxGjAYBgNVBAoMEU1vc3F1aXR0byBQcm9q
ZWN0MRAwDgYDVQQLDAdUZXN0aW5nMRMwEQYDVQQDDApTaWduaW5nIENBMIGfMA0G
CSqGSIb3DQEBAQUAA4GNADCBiQKBgQC3MvIIBEx3A3A+EIiEzc3yhy88Z494AV7V
UfERaE2n4nOwabVnB1mIzLh/zpdSvPtze2CVonvCmvFNWsRCVcRuAlChcUFo0WyW
4D2vED97ZME6OsOpOXEIKUXIzNozZbRw+za8FQ2nMe/V7FmsdSt3NQvw2z0U9ZpB
5qC3t2Ir5wIDAQABo1AwTjAdBgNVHQ4EFgQU7mC7xxdf03KsM+6OhMwt2xrMilIw
HwYDVR0jBBgwFoAU2iCr4JgiOSjgcNZ0ZVMm4GtMljkwDAYDVR0TBAUwAwEB/zAN
BgkqhkiG9w0BAQsFAAOBgQCKmBfN4dwrG1sWQJkhxNTbP1xq7Xuitt+qfNhqPxE5
2kzOP+WZaqS4gh5Tel3xUr7f8TtZmqi7fvEwM0t8w6uFHsQOrNF+K8udGVvflLSJ
4dpdMRmFNNUzVfivkuqaF8naaADfEOnkMzXNFVeAVhpYlDfX8gLemwvTAmTFjm8l
MQ==
-----END CERTIFICATE-----
